(lp1
Vall
p2
aVconsider
p3
aVDoes
p4
aV/
aVgo
p5
aVfollow
p6
aVlooking
p7
aVcertainly
p8
aVreferring
p9
aVeditors
p10
aVsend
p11
aVreverting
p12
aVto
p13
aVdoes
p14
aVHi
p15
aVtext
p16
aVNot
p17
aVsorry
p18
aVNow
p19
aVcase
p20
aVvery
p21
aVaccount
p22
aVputting
p23
aVGA
p24
aVgot
p25
aVtrouble
p26
aVWhere
p27
aVcategories
p28
aV`
aVJust
p29
aV--
p30
aVlist
p31
aVleave
p32
aVHe
p33
aVdeleting
p34
aVwork
p35
aVsays
p36
aVShould
p37
aVpast
p38
aVsecond
p39
aVfurther
p40
aVeven
p41
aVwill
p42
aVwhat
p43
aVappear
p44
aVsection
p45
aVcurrent
p46
aVversion
p47
aVabove
p48
aVnew
p49
aV;
aVever
p50
aVedited
p51
aVnever
p52
aVhere
p53
aVlet
p54
aVEnglish
p55
aVstandard
p56
aVappears
p57
aVchange
p58
aVgreat
p59
aVchanged
p60
aVbot
p61
aVreason
p62
aVopinion
p63
aVmakes
p64
aVuseful
p65
aVWhen
p66
aVAlso
p67
aVnames
p68
aVapply
p69
aVNice
p70
aVyourself
p71
aVuse
p72
aVfrom
p73
aVworking
p74
aV&
aVstated
p75
aVtwo
p76
aVHello
p77
aVfew
p78
aVwondering
p79
aVtaken
p80
aVtell
p81
aVtoday
p82
aVmore
p83
aV``
p84
aVon
p85
aVstarted
p86
aVunder
p87
aVSo
p88
aVparticular
p89
aVnotability
p90
aVmust
p91
aVme
p92
aVkeeping
p93
aVinclude
p94
aVword
p95
aVthis
p96
aVcreated
p97
aVother
p98
aVparagraph
p99
aVobvious
p100
aVcan
p101
aVmaking
p102
aVmy
p103
aVYour
p104
aVhistory
p105
aVclaim
p106
aVlinks
p107
aVgive
p108
aVprocess
p109
aVallowed
p110
aVsuggestions
p111
aVconfused
p112
aVtopic
p113
aVtag
p114
aVsomething
p115
aVwant
p116
aVsense
p117
aVkeep
p118
aV!
aVinformation
p119
aVneeds
p120
aVend
p121
aVprovide
p122
aVdiscussion
p123
aVWho
p124
aVwrite
p125
aVnecessary
p126
aVanswer
p127
aVplace
p128
aVWhy
p129
aVA
aVmap
p130
aVadministrator
p131
aVokay
p132
aVtried
p133
aVmay
p134
aVadvice
p135
aVafter
p136
aVwrong
p137
aV??
p138
aVdate
p139
aVsuch
p140
aVnomination
p141
aVa
aVmaybe
p142
aVOne
p143
aVrather
p144
aVso
p145
aVsuggest
p146
aVevery
p147
aV???
p148
aVtalk
p149
aVWhat
p150
aVhelp
p151
aVover
p152
aVmove
p153
aVyears
p154
aVthrough
p155
aVlooks
p156
aVmentioned
p157
aVstill
p158
aVits
p159
aVbefore
p160
aV1
aVstyle
p161
aVthank
p162
aVhow
p163
aVsomewhere
p164
aVfix
p165
aV,
aVactually
p166
aVinfobox
p167
aVedits
p168
aVwilling
p169
aVpolicy
p170
aVmain
p171
aVmight
p172
aVimage
p173
aVthen
p174
aVthem
p175
aVgood
p176
aVdeletion
p177
aVmaterial
p178
aVmention
p179
aVCan
p180
aVthey
p181
aVinstead
p182
aVnot
p183
aVnow
p184
aVdiscuss
p185
aVarticles
p186
aVterm
p187
aVname
p188
aVedit
p189
aValways
p190
aVrevert
p191
aVmerge
p192
aVsomeone
p193
aVThanks
p194
aVeach
p195
aVfound
p196
aV|
aVmean
p197
aVtemplates
p198
aVdoing
p199
aVidea
p200
aVrelated
p201
aVbooks
p202
aVWhich
p203
aVyear
p204
aVour
p205
aVhappen
p206
aVreally
p207
aVcategory
p208
aVtry
p209
aVmissed
p210
aV'
aVspace
p211
aVAfD
p212
aVsince
p213
aVcontent
p214
aVMaybe
p215
aV-LRB-
p216
aVissue
p217
aVcorrect
p218
aVstate
p219
aVThis
p220
aVgiven
p221
aVfree
p222
aVquite
p223
aVclarify
p224
aVcompletely
p225
aVput
p226
aVwanted
p227
aVcare
p228
aVlanguage
p229
aV-RRB-
p230
aVcould
p231
aVask
p232
aVdays
p233
aVtimes
p234
aVthing
p235
aVspeedy
p236
aVthink
p237
aVfirst
p238
aVmajor
p239
aValready
p240
aVfeel
p241
aVThere
p242
aVPlease
p243
aVnumber
p244
aVone
p245
aVfeatured
p246
aVdone
p247
aVanother
p248
aVmessage
p249
aVlittle
p250
aVOkay
p251
aVreference
p252
aVdata
p253
aVtop
p254
aVleast
p255
aVanyone
p256
aVtheir
p257
aVattack
p258
aV2
aVlisted
p259
aVcite
p260
aVtoo
p261
aVway
p262
aVthat
p263
aVexplanation
p264
aVexactly
p265
aVtook
p266
aVpart
p267
aVreview
p268
aVbelieve
p269
aVthan
p270
aVkind
p271
aVproject
p272
aVmatter
p273
aVsupposed
p274
aV<person>
p275
aVstub
p276
aVand
p277
aVmind
p278
aVtalking
p279
aVsay
p280
aVhave
p281
aVneed
p282
aVseen
p283
aVseem
p284
aVsaw
p285
aVclearly
p286
aVDo
p287
aVable
p288
aVnote
p289
aValso
p290
aVconcerns
p291
aVtake
p292
aVwhich
p293
aVwonder
p294
aVsure
p295
aVthough
p296
aVwho
p297
aVdid
p298
aVmost
p299
aVGood
p300
aVnothing
p301
aVThe
p302
aVpages
p303
aVconsidered
p304
aVclear
p305
aVrequest
p306
aVIf
p307
aVresponded
p308
aVsaying
p309
aVshow
p310
aVplease
p311
aVanyway
p312
aVplanning
p313
aVWP
p314
aVfine
p315
aVfind
p316
aVredirect
p317
aVWe
p318
aVediting
p319
aVbased
p320
aVcopyright
p321
aVtitle
p322
aVexplain
p323
aVenough
p324
aVshould
p325
aVonly
p326
aVgoing
p327
aVpretty
p328
aVposted
p329
aVhope
p330
aVdispute
p331
aVdo
p332
aVhis
p333
aVtemplate
p334
aVget
p335
aVfamiliar
p336
aVstop
p337
aVones
p338
aVreply
p339
aVreport
p340
aVhim
p341
aVregarding
p342
aVremove
p343
aVsummary
p344
aVstuff
p345
aVshe
p346
aVwhere
p347
aVwrote
p348
aVview
p349
aVwiki
p350
aVfair
p351
aV:-RRB-
p352
aVWikipedia
p353
aVwe
p354
aVsee
p355
aVare
p356
aVbest
p357
aVsubject
p358
aVsaid
p359
aVThat
p360
aVpictures
p361
aVaway
p362
aVwikipedia
p363
aVwritten
p364
aVclosed
p365
aVbetween
p366
aVprobably
p367
aVreading
p368
aVemail
p369
aVnotice
p370
aVrecently
p371
aVcreating
p372
aVmissing
p373
aVCould
p374
aVwere
p375
aVjob
p376
aVarticle
p377
aVcome
p378
aVimprove
p379
aVboth
p380
aVlast
p381
aVadmin
p382
aVmany
p383
aVtaking
p384
aVagainst
p385
aVcalled
p386
aVpersonal
p387
aVYes
p388
aVwhole
p389
aVasked
p390
aVcomment
p391
aVIP
p392
aVWould
p393
aVpoint
p394
aVsimple
p395
aVcharacter
p396
aVca
p397
aVaddress
p398
aVHey
p399
aVcommunity
p400
aVsimply
p401
aVSorry
p402
aVwriting
p403
aVWas
p404
aVbetter
p405
aVcreate
p406
aVthree
p407
aVbeen
p408
aV.
aVmuch
p409
aVinterest
p410
aVwebsite
p411
aVgeneral
p412
aVam
p413
aVelse
p414
aVunderstand
p415
aVan
p416
aVthose
p417
aVAnd
p418
aVmyself
p419
aVlook
p420
aVthese
p421
aVreliable
p422
aVsingle
p423
aVBy
p424
aVn't
p425
aVwhile
p426
aVsuppose
p427
aVAny
p428
aV...
p429
aVlinked
p430
aVis
p431
aVit
p432
aVitself
p433
aVin
p434
aVYou
p435
aVif
p436
aVdifferent
p437
aVperhaps
p438
aVthings
p439
aVmake
p440
aVsame
p441
aVany
p442
aVuserpage
p443
aVDid
p444
aVvandalism
p445
aVseveral
p446
aVweek
p447
aVused
p448
aVI
aV<nowiki>
p449
aVdisagree
p450
aVmoving
p451
aVuser
p452
aVchanging
p453
aVthoughts
p454
aVoff
p455
aVi
aVchanges
p456
aVIs
p457
aVwell
p458
aVIt
p459
aVthought
p460
aVperson
p461
aVwithout
p462
aVHave
p463
aVIn
p464
aVthe
p465
aVleft
p466
aVredirects
p467
aVThank
p468
aVjust
p469
aVsentence
p470
aVbeing
p471
aV-
aVremoved
p472
aVsources
p473
aVthanks
p474
aVyet
p475
aVprevious
p476
aVadding
p477
aV<url>
p478
aVthinking
p479
aVseems
p480
aVhad
p481
aVday
p482
aVsource
p483
aVadd
p484
aVbook
p485
aVhas
p486
aVreverted
p487
aVOn
p488
aVOk
p489
aVaround
p490
aVOh
p491
aVread
p492
aVcouple
p493
aVpossible
p494
aVknow
p495
aVusing
p496
aVbit
p497
aVOr
p498
aVOK
p499
aVlike
p500
aV've
p501
aVconsensus
p502
aVAre
p503
aVworks
p504
aVpage
p505
aVright
p506
aVold
p507
aVdeal
p508
aVpeople
p509
aVSince
p510
aVsome
p511
aVback
p512
aVadded
p513
aVimages
p514
aVcurious
p515
aVspecific
p516
aVfor
p517
aVcomments
p518
aVasking
p519
aV?
aVeither
p520
aVbe
p521
aVdeleted
p522
aVnotable
p523
aVpost
p524
aVby
p525
aVfaith
p526
aVabout
p527
aVok
p528
aVwould
p529
aVanything
p530
aVgetting
p531
aVof
p532
aVimportant
p533
aVblocked
p534
aVor
p535
aVblock
p536
aVown
p537
aVNo
p538
aVinto
p539
aVdown
p540
aVappropriate
p541
aVbecause
p542
aVreferences
p543
aVBut
p544
aVnext
p545
aVyour
p546
aVher
p547
aVremoving
p548
aVsupport
p549
aVthere
p550
aVquestion
p551
aVlong
p552
aVnoticed
p553
aVstart
p554
aVeditor
p555
aVlot
p556
aV:
aVwas
p557
aVhappy
p558
aVWell
p559
aVbut
p560
aVlink
p561
aVline
p562
aVtrying
p563
aVwith
p564
aVhe
p565
aVinfo
p566
aVmade
p567
aVwhether
p568
aVup
p569
aVus
p570
aV're
p571
aVproblem
p572
aVagree
p573
aVdelete
p574
aVPerhaps
p575
aVcitation
p576
aVmoved
p577
aVevidence
p578
aV''
p579
aVHow
p580
aVas
p581
aVwarning
p582
aVat
p583
aVfile
p584
aVNew
p585
aVcheck
p586
aVagain
p587
aV'll
p588
aVno
p589
aVMay
p590
aVwhen
p591
aVinterested
p592
aVyou
p593
aVout
p594
aVnice
p595
aVpicture
p596
aV's
p597
aVusers
p598
aVseparate
p599
aVwhy
p600
aVwelcome
p601
aVproblems
p602
aVchance
p603
aV'd
p604
aVincluded
p605
aV'm
p606
aVago
p607
aVlonger
p608
aVhaving
p609
aVAs
p610
aVstatus
p611
aVtime
p612
aVfar
p613
aVoriginal
p614
aVothers
p615
aVonce
p616
a.